; Function Attrs: mustprogress uwtable
define hidden noundef zeroext i1 @_ZN4cvc58internal7CDProof15shouldOverwriteEPNS0_9ProofNodeENS_9ProofRuleENS0_12CDPOverwriteE(ptr noundef %pn, i32 noundef %newId, i32 noundef %opol) local_unnamed_addr #3 align 2 {
entry:
  switch i32 %opol, label %lor.end.fold.split [
    i32 0, label %lor.end
    i32 1, label %land.lhs.true
  ]

land.lhs.true:                                    ; preds = %entry
  %call.i = tail call noundef i32 @_ZNK4cvc58internal9ProofNode7getRuleEv(ptr noundef nonnull align 8 dereferenceable(65) %pn)
  switch i32 %call.i, label %if.then2.i [
    i32 0, label %_ZN4cvc58internal7CDProof12isAssumptionEPNS0_9ProofNodeE.exit
    i32 68, label %if.end3.i
  ]

if.then2.i:                                       ; preds = %land.lhs.true
  br label %_ZN4cvc58internal7CDProof12isAssumptionEPNS0_9ProofNodeE.exit

if.end3.i:                                        ; preds = %land.lhs.true
  %call4.i = tail call noundef ptr @_ZN4cvc58internal16ProofNodeManager16cancelDoubleSymmEPNS0_9ProofNodeE(ptr noundef nonnull %pn)
  %call5.i = tail call noundef i32 @_ZNK4cvc58internal9ProofNode7getRuleEv(ptr noundef nonnull align 8 dereferenceable(65) %call4.i)
  switch i32 %call5.i, label %if.then10.i [
    i32 0, label %_ZN4cvc58internal7CDProof12isAssumptionEPNS0_9ProofNodeE.exit
    i32 68, label %if.end12.i
  ]

if.then10.i:                                      ; preds = %if.end3.i
  br label %_ZN4cvc58internal7CDProof12isAssumptionEPNS0_9ProofNodeE.exit

if.end12.i:                                       ; preds = %if.end3.i
  %call13.i = tail call noundef nonnull align 8 dereferenceable(24) ptr @_ZNK4cvc58internal9ProofNode11getChildrenEv(ptr noundef nonnull align 8 dereferenceable(65) %call4.i)
  %0 = load ptr, ptr %call13.i, align 8
  %1 = load ptr, ptr %0, align 8
  %call16.i = tail call noundef i32 @_ZNK4cvc58internal9ProofNode7getRuleEv(ptr noundef nonnull align 8 dereferenceable(65) %1)
  %cmp17.i = icmp eq i32 %call16.i, 0
  br label %_ZN4cvc58internal7CDProof12isAssumptionEPNS0_9ProofNodeE.exit

_ZN4cvc58internal7CDProof12isAssumptionEPNS0_9ProofNodeE.exit: ; preds = %land.lhs.true, %if.then2.i, %if.end3.i, %if.then10.i, %if.end12.i
  %retval.0.i = phi i1 [ false, %if.then2.i ], [ false, %if.then10.i ], [ %cmp17.i, %if.end12.i ], [ true, %land.lhs.true ], [ true, %if.end3.i ]
  %cmp2 = icmp ne i32 %newId, 0
  %spec.select = and i1 %cmp2, %retval.0.i
  br label %lor.end

lor.end.fold.split:                               ; preds = %entry
  br label %lor.end

lor.end:                                          ; preds = %_ZN4cvc58internal7CDProof12isAssumptionEPNS0_9ProofNodeE.exit, %entry, %lor.end.fold.split
  %2 = phi i1 [ true, %entry ], [ false, %lor.end.fold.split ], [ %spec.select, %_ZN4cvc58internal7CDProof12isAssumptionEPNS0_9ProofNodeE.exit ]
  ret i1 %2
}